; Function Attrs: mustprogress uwtable
define void @_ZN17DisplayFilterEdit11showFiltersEv(ptr noundef nonnull align 8 dereferenceable(352) %0) #2 align 2 personality ptr @__gxx_personality_v0 {
  %2 = alloca %class.QString, align 8
  %3 = tail call noalias noundef nonnull dereferenceable(96) ptr @_Znwm(i64 noundef 96) #20
  %4 = invoke noundef ptr @_ZNK7QWidget6windowEv(ptr noundef nonnull align 8 dereferenceable(40) %0)
          to label %5 unwind label %11

5:                                                ; preds = %1
  call void @llvm.memset.p0.i64(ptr noundef nonnull align 8 dereferenceable(24) %2, i8 0, i64 24, i1 false)
  invoke void @_ZN12FilterDialogC1EP7QWidgetNS_10FilterTypeE7QString(ptr noundef nonnull align 8 dereferenceable(96) %3, ptr noundef %4, i32 noundef 1, ptr noundef nonnull %2)
          to label %6 unwind label %13

6:                                                ; preds = %5
  %7 = load ptr, ptr %2, align 8
  %.not.i.i.i = icmp eq ptr %7, null
  br i1 %.not.i.i.i, label %_ZN7QStringD2Ev.exit, label %_ZN17QArrayDataPointerIDsE5derefEv.exit.i.i

_ZN17QArrayDataPointerIDsE5derefEv.exit.i.i:      ; preds = %6
  %8 = atomicrmw sub ptr %7, i32 1 seq_cst, align 4
  %.not.i.i = icmp eq i32 %8, 1
  br i1 %.not.i.i, label %9, label %_ZN7QStringD2Ev.exit

9:                                                ; preds = %_ZN17QArrayDataPointerIDsE5derefEv.exit.i.i
  %10 = load ptr, ptr %2, align 8
  call void @_ZN10QArrayData10deallocateEPS_xx(ptr noundef %10, i64 noundef 2, i64 noundef 8) #19
  br label %_ZN7QStringD2Ev.exit

_ZN7QStringD2Ev.exit:                             ; preds = %6, %_ZN17QArrayDataPointerIDsE5derefEv.exit.i.i, %9
  call void @_ZN7QWidget17setWindowModalityEN2Qt14WindowModalityE(ptr noundef nonnull align 8 dereferenceable(40) %3, i32 noundef 2)
  call void @_ZN7QWidget12setAttributeEN2Qt15WidgetAttributeEb(ptr noundef nonnull align 8 dereferenceable(40) %3, i32 noundef 55, i1 noundef zeroext true)
  call void @_ZN7QWidget4showEv(ptr noundef nonnull align 8 dereferenceable(40) %3)
  ret void

11:                                               ; preds = %1
  %12 = landingpad { ptr, i32 }
          cleanup
  br label %_ZN7QStringD2Ev.exit11

13:                                               ; preds = %5
  %14 = landingpad { ptr, i32 }
          cleanup
  %15 = load ptr, ptr %2, align 8
  %.not.i.i.i8 = icmp eq ptr %15, null
  br i1 %.not.i.i.i8, label %_ZN7QStringD2Ev.exit11, label %_ZN17QArrayDataPointerIDsE5derefEv.exit.i.i9

_ZN17QArrayDataPointerIDsE5derefEv.exit.i.i9:     ; preds = %13
  %16 = atomicrmw sub ptr %15, i32 1 seq_cst, align 4
  %.not.i.i10 = icmp eq i32 %16, 1
  br i1 %.not.i.i10, label %17, label %_ZN7QStringD2Ev.exit11

17:                                               ; preds = %_ZN17QArrayDataPointerIDsE5derefEv.exit.i.i9
  %18 = load ptr, ptr %2, align 8
  call void @_ZN10QArrayData10deallocateEPS_xx(ptr noundef %18, i64 noundef 2, i64 noundef 8) #19
  br label %_ZN7QStringD2Ev.exit11

_ZN7QStringD2Ev.exit11:                           ; preds = %17, %_ZN17QArrayDataPointerIDsE5derefEv.exit.i.i9, %13, %11
  %.pn = phi { ptr, i32 } [ %12, %11 ], [ %14, %13 ], [ %14, %_ZN17QArrayDataPointerIDsE5derefEv.exit.i.i9 ], [ %14, %17 ]
  call void @_ZdlPv(ptr noundef nonnull %3) #21
  resume { ptr, i32 } %.pn
}